target datalayout = "e-m:e-p270:32:32-p271:32:32-p272:64:64-i64:64-i128:128-f80:128-n8:16:32:64-S128"
target triple = "x86_64-unknown-linux-gnu"

%struct.tdefl_compressor = type { ptr, ptr, i32, [2 x i32], i32, i32, i32, i32, i32, ptr, ptr, ptr, ptr, i32, i32, i32, i32, i32, i32, i32, i32, i32, i32, i32, i32, i32, i32, ptr, ptr, ptr, ptr, i32, ptr, i64, i64, [33025 x i8], [3 x [288 x i16]], [3 x [288 x i16]], [3 x [288 x i8]], [65536 x i8], [32768 x i16], [32768 x i16], [85196 x i8] }
%struct.mz_zip_archive = type { i64, i64, i32, i32, i32, i32, i64, ptr, ptr, ptr, ptr, ptr, ptr, ptr, ptr, ptr }
%struct.mz_zip_writer_add_state = type { ptr, i64, i64 }
%struct.zip_t = type { %struct.mz_zip_archive, i32, %struct.zip_entry_t }
%struct.zip_entry_t = type { i32, ptr, i64, i64, i32, i64, [30 x i8], i64, i16, %struct.mz_zip_writer_add_state, %struct.tdefl_compressor, i32, i64 }

; Function Attrs: nounwind uwtable
define hidden i64 @zip_entry_noallocread(ptr noundef %zip, ptr noundef %buf, i64 noundef %bufsize) #0 {
entry:
  %retval = alloca i64, align 8
  %zip.addr = alloca ptr, align 8
  %buf.addr = alloca ptr, align 8
  %bufsize.addr = alloca i64, align 8
  %pzip = alloca ptr, align 8
  store ptr %zip, ptr %zip.addr, align 8
  store ptr %buf, ptr %buf.addr, align 8
  store i64 %bufsize, ptr %bufsize.addr, align 8
  store ptr null, ptr %pzip, align 8
  %0 = load ptr, ptr %zip.addr, align 8
  %tobool = icmp ne ptr %0, null
  br i1 %tobool, label %if.end, label %if.then

if.then:                                          ; preds = %entry
  store i64 -1, ptr %retval, align 8
  br label %return

if.end:                                           ; preds = %entry
  %1 = load ptr, ptr %zip.addr, align 8
  %archive = getelementptr inbounds %struct.zip_t, ptr %1, i32 0, i32 0
  store ptr %archive, ptr %pzip, align 8
  %2 = load ptr, ptr %pzip, align 8
  %m_zip_mode = getelementptr inbounds %struct.mz_zip_archive, ptr %2, i32 0, i32 3
  %3 = load i32, ptr %m_zip_mode, align 4
  %cmp = icmp ne i32 %3, 1
  br i1 %cmp, label %if.then3, label %lor.lhs.false

lor.lhs.false:                                    ; preds = %if.end
  %4 = load ptr, ptr %zip.addr, align 8
  %entry1 = getelementptr inbounds %struct.zip_t, ptr %4, i32 0, i32 2
  %index = getelementptr inbounds %struct.zip_entry_t, ptr %entry1, i32 0, i32 0
  %5 = load i32, ptr %index, align 8
  %cmp2 = icmp slt i32 %5, 0
  br i1 %cmp2, label %if.then3, label %if.end4

if.then3:                                         ; preds = %lor.lhs.false, %if.end
  store i64 -3, ptr %retval, align 8
  br label %return

if.end4:                                          ; preds = %lor.lhs.false
  %6 = load ptr, ptr %pzip, align 8
  %7 = load ptr, ptr %zip.addr, align 8
  %entry5 = getelementptr inbounds %struct.zip_t, ptr %7, i32 0, i32 2
  %index6 = getelementptr inbounds %struct.zip_entry_t, ptr %entry5, i32 0, i32 0
  %8 = load i32, ptr %index6, align 8
  %9 = load ptr, ptr %buf.addr, align 8
  %10 = load i64, ptr %bufsize.addr, align 8
  %call = call i32 @mz_zip_reader_extract_to_mem_no_alloc(ptr noundef %6, i32 noundef %8, ptr noundef %9, i64 noundef %10, i32 noundef 0, ptr noundef null, i64 noundef 0)
  %tobool7 = icmp ne i32 %call, 0
  br i1 %tobool7, label %if.end9, label %if.then8

if.then8:                                         ; preds = %if.end4
  store i64 -18, ptr %retval, align 8
  br label %return

if.end9:                                          ; preds = %if.end4
  %11 = load ptr, ptr %zip.addr, align 8
  %entry10 = getelementptr inbounds %struct.zip_t, ptr %11, i32 0, i32 2
  %uncomp_size = getelementptr inbounds %struct.zip_entry_t, ptr %entry10, i32 0, i32 2
  %12 = load i64, ptr %uncomp_size, align 8
  store i64 %12, ptr %retval, align 8
  br label %return

return:                                           ; preds = %if.end9, %if.then8, %if.then3, %if.then
  %13 = load i64, ptr %retval, align 8
  ret i64 %13
}