; Function Attrs: nounwind uwtable
define hidden i64 @zip_entry_noallocread(ptr noundef %zip, ptr noundef %buf, i64 noundef %bufsize) local_unnamed_addr #4 {
entry:
  %tobool.not = icmp eq ptr %zip, null
  br i1 %tobool.not, label %return, label %if.end

if.end:                                           ; preds = %entry
  %m_zip_mode = getelementptr inbounds nuw i8, ptr %zip, i64 20
  %0 = load i32, ptr %m_zip_mode, align 4
  %cmp.not = icmp eq i32 %0, 1
  br i1 %cmp.not, label %lor.lhs.false, label %return

lor.lhs.false:                                    ; preds = %if.end
  %entry1 = getelementptr inbounds nuw i8, ptr %zip, i64 120
  %1 = load i32, ptr %entry1, align 8
  %cmp2 = icmp slt i32 %1, 0
  br i1 %cmp2, label %return, label %if.end4

if.end4:                                          ; preds = %lor.lhs.false
  %call = tail call i32 @mz_zip_reader_extract_to_mem_no_alloc(ptr noundef nonnull %zip, i32 noundef %1, ptr noundef %buf, i64 noundef %bufsize, i32 noundef 0, ptr noundef null, i64 noundef 0)
  %tobool7.not = icmp eq i32 %call, 0
  br i1 %tobool7.not, label %return, label %if.end9

if.end9:                                          ; preds = %if.end4
  %uncomp_size = getelementptr inbounds nuw i8, ptr %zip, i64 136
  %2 = load i64, ptr %uncomp_size, align 8
  br label %return

return:                                           ; preds = %if.end4, %if.end, %lor.lhs.false, %entry, %if.end9
  %retval.0 = phi i64 [ %2, %if.end9 ], [ -1, %entry ], [ -3, %lor.lhs.false ], [ -3, %if.end ], [ -18, %if.end4 ]
  ret i64 %retval.0
}